; Function Attrs: mustprogress nofree norecurse nosync nounwind willreturn memory(argmem: write) uwtable
define void @_ZN7rocksdb16MutableDBOptionsC2Ev(ptr noundef nonnull align 8 dereferenceable(144) initializes((0, 13), (16, 68), (72, 89), (96, 108)) %0) unnamed_addr #12 align 2 personality ptr @__gxx_personality_v0 {
  store i32 2, ptr %0, align 8, !tbaa !343
  %2 = getelementptr inbounds nuw i8, ptr %0, i64 4
  store i32 -1, ptr %2, align 4, !tbaa !344
  %3 = getelementptr inbounds nuw i8, ptr %0, i64 8
  store i32 0, ptr %3, align 8, !tbaa !345
  %4 = getelementptr inbounds nuw i8, ptr %0, i64 12
  store i8 0, ptr %4, align 4, !tbaa !346
  %5 = getelementptr inbounds nuw i8, ptr %0, i64 16
  store i64 1048576, ptr %5, align 8, !tbaa !347
  %6 = getelementptr inbounds nuw i8, ptr %0, i64 24
  store i64 2097152, ptr %6, align 8, !tbaa !348
  %7 = getelementptr inbounds nuw i8, ptr %0, i64 32
  store i64 0, ptr %7, align 8, !tbaa !349
  %8 = getelementptr inbounds nuw i8, ptr %0, i64 40
  store i64 21600000000, ptr %8, align 8, !tbaa !350
  %9 = getelementptr inbounds nuw i8, ptr %0, i64 48
  store i32 600, ptr %9, align 8, !tbaa !351
  %10 = getelementptr inbounds nuw i8, ptr %0, i64 52
  store i32 600, ptr %10, align 4, !tbaa !352
  %11 = getelementptr inbounds nuw i8, ptr %0, i64 56
  store i64 1048576, ptr %11, align 8, !tbaa !353
  %12 = getelementptr inbounds nuw i8, ptr %0, i64 64
  store i32 -1, ptr %12, align 8, !tbaa !354
  %13 = getelementptr inbounds nuw i8, ptr %0, i64 72
  %14 = getelementptr inbounds nuw i8, ptr %0, i64 96
  store i64 0, ptr %14, align 8, !tbaa !355
  %15 = getelementptr inbounds nuw i8, ptr %0, i64 104
  tail call void @llvm.memset.p0.i64(ptr noundef nonnull align 8 dereferenceable(17) %13, i8 0, i64 17, i1 false)
  store i32 -1, ptr %15, align 8, !tbaa !356
  %16 = getelementptr inbounds nuw i8, ptr %0, i64 112
  %17 = getelementptr inbounds nuw i8, ptr %0, i64 128
  store ptr %17, ptr %16, align 8, !tbaa !37
  %18 = getelementptr inbounds nuw i8, ptr %0, i64 120
  store i64 0, ptr %18, align 8, !tbaa !12
  store i8 0, ptr %17, align 8, !tbaa !13
  ret void
}